target datalayout = "e-m:e-p270:32:32-p271:32:32-p272:64:64-i64:64-i128:128-f80:128-n8:16:32:64-S128"
target triple = "x86_64-pc-linux-gnu"

%struct.pointf_s = type { double, double }
%struct.GVC_s = type { %struct.GVCOMMON_s, ptr, i8, ptr, i32, ptr, ptr, [5 x ptr], [5 x ptr], ptr, ptr, %struct.dtdisc_s_, ptr, %struct.gvplugin_active_textlayout_s, ptr, ptr, ptr, %struct.gvplugin_active_layout_s, ptr, ptr, ptr, %struct.pointf_s, %struct.pointf_s, %struct.pointf_s, %struct.point, %struct.boxf, i32, i8, i8, i8, ptr, ptr, ptr, ptr, i32, ptr, ptr, double, ptr, %struct.color_s, i32 }
%struct.GVCOMMON_s = type { ptr, ptr, i32, i8, i8, ptr, ptr, ptr, i32, ptr, i32 }
%struct.dtdisc_s_ = type { i32, i32, i32, ptr, ptr, ptr }
%struct.gvplugin_active_textlayout_s = type { ptr, i32, ptr }
%struct.gvplugin_active_layout_s = type { ptr, i32, ptr, ptr }
%struct.point = type { i32, i32 }
%struct.boxf = type { %struct.pointf_s, %struct.pointf_s }
%struct.color_s = type { %union.anon, i32 }
%union.anon = type { [4 x double] }

@Dtoset = external global ptr, align 8

; Function Attrs: nounwind uwtable
define void @textfont_dict_open(ptr noundef %0) #0 {
  %2 = alloca ptr, align 8
  store ptr %0, ptr %2, align 8, !tbaa !3
  %3 = load ptr, ptr %2, align 8, !tbaa !3
  %4 = getelementptr inbounds nuw %struct.GVC_s, ptr %3, i32 0, i32 11
  %5 = getelementptr inbounds nuw %struct.dtdisc_s_, ptr %4, i32 0, i32 0
  store i32 0, ptr %5, align 8, !tbaa !41
  %6 = load ptr, ptr %2, align 8, !tbaa !3
  %7 = getelementptr inbounds nuw %struct.GVC_s, ptr %6, i32 0, i32 11
  %8 = getelementptr inbounds nuw %struct.dtdisc_s_, ptr %7, i32 0, i32 1
  store i32 40, ptr %8, align 4, !tbaa !58
  %9 = load ptr, ptr %2, align 8, !tbaa !3
  %10 = getelementptr inbounds nuw %struct.GVC_s, ptr %9, i32 0, i32 11
  %11 = getelementptr inbounds nuw %struct.dtdisc_s_, ptr %10, i32 0, i32 2
  store i32 -1, ptr %11, align 8, !tbaa !59
  %12 = load ptr, ptr %2, align 8, !tbaa !3
  %13 = getelementptr inbounds nuw %struct.GVC_s, ptr %12, i32 0, i32 11
  %14 = getelementptr inbounds nuw %struct.dtdisc_s_, ptr %13, i32 0, i32 3
  store ptr @textfont_makef, ptr %14, align 8, !tbaa !60
  %15 = load ptr, ptr %2, align 8, !tbaa !3
  %16 = getelementptr inbounds nuw %struct.GVC_s, ptr %15, i32 0, i32 11
  %17 = getelementptr inbounds nuw %struct.dtdisc_s_, ptr %16, i32 0, i32 4
  store ptr @textfont_freef, ptr %17, align 8, !tbaa !61
  %18 = load ptr, ptr %2, align 8, !tbaa !3
  %19 = getelementptr inbounds nuw %struct.GVC_s, ptr %18, i32 0, i32 11
  %20 = getelementptr inbounds nuw %struct.dtdisc_s_, ptr %19, i32 0, i32 5
  store ptr @textfont_comparf, ptr %20, align 8, !tbaa !62
  %21 = load ptr, ptr %2, align 8, !tbaa !3
  %22 = getelementptr inbounds nuw %struct.GVC_s, ptr %21, i32 0, i32 11
  %23 = load ptr, ptr @Dtoset, align 8, !tbaa !8
  %24 = call ptr @dtopen(ptr noundef %22, ptr noundef %23)
  %25 = load ptr, ptr %2, align 8, !tbaa !3
  %26 = getelementptr inbounds nuw %struct.GVC_s, ptr %25, i32 0, i32 12
  store ptr %24, ptr %26, align 8, !tbaa !63
  ret void
}