; Function Attrs: nounwind uwtable
define void @textfont_dict_open(ptr noundef initializes((216, 228), (232, 256)) %0) local_unnamed_addr #0 {
  %2 = getelementptr inbounds nuw i8, ptr %0, i64 216
  store i32 0, ptr %2, align 8, !tbaa !32
  %3 = getelementptr inbounds nuw i8, ptr %0, i64 220
  store i32 40, ptr %3, align 4, !tbaa !51
  %4 = getelementptr inbounds nuw i8, ptr %0, i64 224
  store i32 -1, ptr %4, align 8, !tbaa !52
  %5 = getelementptr inbounds nuw i8, ptr %0, i64 232
  store ptr @textfont_makef, ptr %5, align 8, !tbaa !53
  %6 = getelementptr inbounds nuw i8, ptr %0, i64 240
  store ptr @textfont_freef, ptr %6, align 8, !tbaa !54
  %7 = getelementptr inbounds nuw i8, ptr %0, i64 248
  store ptr @textfont_comparf, ptr %7, align 8, !tbaa !55
  %8 = load ptr, ptr @Dtoset, align 8, !tbaa !56
  %9 = tail call ptr @dtopen(ptr noundef nonnull %2, ptr noundef %8) #15
  %10 = getelementptr inbounds nuw i8, ptr %0, i64 256
  store ptr %9, ptr %10, align 8, !tbaa !57
  ret void
}